; Function Attrs: mustprogress noreturn uwtable
define hidden void @_ZNK19OpenColorIO_v2_4dev10FileFormat5writeERKSt10shared_ptrIKNS_6ConfigEERKS1_IKNS_7ContextEERKNS_14GroupTransformERKNSt7__cxx1112basic_stringIcSt11char_traitsIcESaIcEEERSo(ptr nocapture nonnull readnone align 8 %this, ptr nocapture nonnull readnone align 1 %0, ptr nocapture nonnull readnone align 8 %1, ptr nocapture nonnull readnone align 8 %2, ptr noundef nonnull align 8 dereferenceable(32) %formatName, ptr nocapture nonnull readnone align 8 %3) unnamed_addr #16 align 2 personality ptr @__gxx_personality_v0 {
entry:
  %os = alloca %"class.std::__cxx11::basic_ostringstream", align 8
  %ref.tmp = alloca %"class.std::__cxx11::basic_string", align 8
  call void @_ZNSt7__cxx1119basic_ostringstreamIcSt11char_traitsIcESaIcEEC1Ev(ptr noundef nonnull align 8 dereferenceable(112) %os)
  %call = invoke noundef nonnull align 8 dereferenceable(8) ptr @_ZStlsISt11char_traitsIcEERSt13basic_ostreamIcT_ES5_PKc(ptr noundef nonnull align 8 dereferenceable(8) %os, ptr noundef nonnull @.str.17)
          to label %invoke.cont unwind label %lpad

invoke.cont:                                      ; preds = %entry
  %call6 = invoke noundef nonnull align 8 dereferenceable(8) ptr @_ZStlsIcSt11char_traitsIcESaIcEERSt13basic_ostreamIT_T0_ES7_RKNSt7__cxx1112basic_stringIS4_S5_T1_EE(ptr noundef nonnull align 8 dereferenceable(8) %call, ptr noundef nonnull align 8 dereferenceable(32) %formatName)
          to label %invoke.cont5 unwind label %lpad

invoke.cont5:                                     ; preds = %invoke.cont
  %call8 = invoke noundef nonnull align 8 dereferenceable(8) ptr @_ZStlsISt11char_traitsIcEERSt13basic_ostreamIcT_ES5_PKc(ptr noundef nonnull align 8 dereferenceable(8) %call6, ptr noundef nonnull @.str.19)
          to label %invoke.cont7 unwind label %lpad

invoke.cont7:                                     ; preds = %invoke.cont5
  %exception = call ptr @__cxa_allocate_exception(i64 16) #28
  invoke void @_ZNKSt7__cxx1119basic_ostringstreamIcSt11char_traitsIcESaIcEE3strEv(ptr nonnull sret(%"class.std::__cxx11::basic_string") align 8 %ref.tmp, ptr noundef nonnull align 8 dereferenceable(112) %os)
          to label %invoke.cont10 unwind label %ehcleanup.thread

invoke.cont10:                                    ; preds = %invoke.cont7
  %call11 = call noundef ptr @_ZNKSt7__cxx1112basic_stringIcSt11char_traitsIcESaIcEE5c_strEv(ptr noundef nonnull align 8 dereferenceable(32) %ref.tmp) #28
  invoke void @_ZN19OpenColorIO_v2_4dev9ExceptionC1EPKc(ptr noundef nonnull align 8 dereferenceable(16) %exception, ptr noundef %call11)
          to label %invoke.cont13 unwind label %ehcleanup.thread6

ehcleanup.thread6:                                ; preds = %invoke.cont10
  %4 = landingpad { ptr, i32 }
          cleanup
  call void @_ZNSt7__cxx1112basic_stringIcSt11char_traitsIcESaIcEED1Ev(ptr noundef nonnull align 8 dereferenceable(32) %ref.tmp) #28
  br label %cleanup.action

invoke.cont13:                                    ; preds = %invoke.cont10
  invoke void @__cxa_throw(ptr nonnull %exception, ptr nonnull @_ZTIN19OpenColorIO_v2_4dev9ExceptionE, ptr nonnull @_ZN19OpenColorIO_v2_4dev9ExceptionD1Ev) #29
          to label %unreachable unwind label %ehcleanup

lpad:                                             ; preds = %invoke.cont5, %invoke.cont, %entry
  %5 = landingpad { ptr, i32 }
          cleanup
  br label %ehcleanup14

ehcleanup.thread:                                 ; preds = %invoke.cont7
  %6 = landingpad { ptr, i32 }
          cleanup
  br label %cleanup.action

ehcleanup:                                        ; preds = %invoke.cont13
  %7 = landingpad { ptr, i32 }
          cleanup
  call void @_ZNSt7__cxx1112basic_stringIcSt11char_traitsIcESaIcEED1Ev(ptr noundef nonnull align 8 dereferenceable(32) %ref.tmp) #28
  br label %ehcleanup14

cleanup.action:                                   ; preds = %ehcleanup.thread6, %ehcleanup.thread
  %.pn5 = phi { ptr, i32 } [ %6, %ehcleanup.thread ], [ %4, %ehcleanup.thread6 ]
  call void @__cxa_free_exception(ptr %exception) #28
  br label %ehcleanup14

ehcleanup14:                                      ; preds = %ehcleanup, %cleanup.action, %lpad
  %.pn.pn = phi { ptr, i32 } [ %.pn5, %cleanup.action ], [ %7, %ehcleanup ], [ %5, %lpad ]
  call void @_ZNSt7__cxx1119basic_ostringstreamIcSt11char_traitsIcESaIcEED1Ev(ptr noundef nonnull align 8 dereferenceable(112) %os) #28
  resume { ptr, i32 } %.pn.pn

unreachable:                                      ; preds = %invoke.cont13
  unreachable
}